Certificate:
    Data:
        Version: 3 (0x2)
        Serial Number:
            87:96:be:e8:fd:e6:d7:82:e0:0d:3b:3c:5f:de:01:bb
        Signature Algorithm: sha256WithRSAEncryption
        Issuer: CN=Easy-RSA CA
        Validity
            Not Before: Apr  6 21:27:51 2024 GMT
            Not After : Apr  4 21:27:51 2034 GMT
        Subject: CN=server
        Subject Public Key Info:
            Public Key Algorithm: rsaEncryption
                Public-Key: (2048 bit)
                Modulus:
                    00:d7:ff:ca:b8:21:a5:1a:68:54:7f:82:e8:8c:1d:
                    f4:82:5d:4d:93:ea:1a:24:37:81:84:4a:07:44:ba:
                    69:fd:49:94:fe:b8:32:e0:7e:75:9d:4a:54:ce:6c:
                    5f:23:3c:86:80:e9:8f:f4:c4:2e:66:85:30:24:c9:
                    d3:f9:34:56:1d:78:16:21:26:17:02:c5:c7:42:24:
                    60:fa:52:f3:fd:68:67:56:e3:df:42:b1:19:d2:59:
                    c4:17:cb:70:45:e3:10:03:41:68:a0:1c:2f:12:f0:
                    8e:74:d5:e8:f1:a4:32:2f:10:00:3e:a1:8f:85:9f:
                    c8:61:0f:8d:ec:03:9e:4e:4b:0c:9a:55:9a:b3:78:
                    4a:a6:5f:7a:92:45:4e:f7:8e:e6:63:42:df:ca:97:
                    6a:30:58:b1:30:6d:0f:04:9a:e2:ce:b3:9f:f7:a8:
                    2f:ef:a6:a0:3f:a3:78:0b:3c:3c:bb:e2:8e:4a:d9:
                    90:22:5c:94:94:c5:9b:22:aa:26:8f:aa:85:e4:12:
                    b2:57:69:42:b1:f7:b6:6a:35:0e:fc:1b:b4:60:e2:
                    7a:52:24:8c:53:45:c9:ce:74:4e:a0:72:72:ce:30:
                    62:1c:d7:6c:3d:ad:c5:ee:9b:5e:3f:84:6b:79:0c:
                    92:74:20:a7:7c:6f:28:e0:c8:ca:5e:bd:81:0c:14:
                    32:61
                Exponent: 65537 (0x10001)
        X509v3 extensions:
            X509v3 Basic Constraints: 
                CA:FALSE
            X509v3 Subject Key Identifier: 
                CC:EA:F2:4D:26:F7:6C:B5:E3:7C:64:3F:66:4E:38:8C:60:BC:34:3E
            X509v3 Authority Key Identifier: 
                keyid:2B:1A:24:7A:D8:3E:23:8B:44:3A:6A:DF:EF:5B:21:25:63:0B:1A:96
                DirName:/CN=Easy-RSA CA
                serial:1B:E1:A6:AD:AE:87:E3:7E:5E:01:0C:3F:67:94:E7:04:91:1E:96:55
            X509v3 Extended Key Usage: 
                TLS Web Server Authentication
            X509v3 Key Usage: 
                Digital Signature, Key Encipherment
            X509v3 Subject Alternative Name: 
                DNS:server
    Signature Algorithm: sha256WithRSAEncryption
    Signature Value:
        60:d9:0c:b9:fd:60:89:cc:f9:ae:c9:6c:e4:11:39:be:3a:d3:
        e0:f9:66:6f:68:a1:31:5a:91:76:35:4b:97:88:07:22:6f:17:
        59:70:5f:cf:82:42:a2:e6:f8:51:7e:d4:82:30:28:92:7e:bf:
        7b:88:bd:f5:7d:52:68:35:68:ae:ce:9e:45:05:d2:a4:ec:ff:
        93:9f:39:cf:4b:7a:b1:3f:89:be:79:07:b9:e6:22:c6:a0:2e:
        23:25:6c:17:2b:a5:d8:fc:f7:36:da:bf:13:16:a1:bd:34:e4:
        b4:c7:27:62:94:34:e9:70:68:8e:29:60:ae:a3:58:c0:ee:50:
        f0:88:a9:45:27:3b:99:4a:81:3c:e3:61:fb:90:f6:14:f3:5b:
        58:ab:a5:cc:d3:fb:9a:53:d1:47:d5:ed:5d:a9:fb:05:d3:83:
        65:31:c6:83:23:65:3f:a4:9f:7d:04:76:03:ac:84:63:a7:ba:
        f5:6f:09:80:79:ce:73:d6:40:3c:a8:72:29:c8:c3:68:2f:bf:
        93:f9:ba:fa:d4:fa:66:e0:17:ae:70:f5:8a:5a:cd:78:6c:e8:
        f9:2f:d9:6d:85:8a:a9:f9:5d:db:31:79:1f:84:f5:04:06:6f:
        87:81:05:ec:bd:7c:32:71:63:8c:20:49:b8:d3:ee:bb:ce:8f:
        aa:7d:78:e3
-----BEGIN CERTIFICATE-----
MIIDaDCCAlCgAwIBAgIRAIeWvuj95teC4A07PF/eAbswDQYJKoZIhvcNAQELBQAw
FjEUMBIGA1UEAwwLRWFzeS1SU0EgQ0EwHhcNMjQwNDA2MjEyNzUxWhcNMzQwNDA0
MjEyNzUxWjARMQ8wDQYDVQQDDAZzZXJ2ZXIwggEiMA0GCSqGSIb3DQEBAQUAA4IB
DwAwggEKAoIBAQDX/8q4IaUaaFR/guiMHfSCXU2T6hokN4GESgdEumn9SZT+uDLg
fnWdSlTObF8jPIaA6Y/0xC5mhTAkydP5NFYdeBYhJhcCxcdCJGD6UvP9aGdW499C
sRnSWcQXy3BF4xADQWigHC8S8I501ejxpDIvEAA+oY+Fn8hhD43sA55OSwyaVZqz
eEqmX3qSRU73juZjQt/Kl2owWLEwbQ8EmuLOs5/3qC/vpqA/o3gLPDy74o5K2ZAi
XJSUxZsiqiaPqoXkErJXaUKx97ZqNQ78G7Rg4npSJIxTRcnOdE6gcnLOMGIc12w9
rcXum14/hGt5DJJ0IKd8byjgyMpevYEMFDJhAgMBAAGjgbUwgbIwCQYDVR0TBAIw
ADAdBgNVHQ4EFgQUzOryTSb3bLXjfGQ/Zk44jGC8ND4wUQYDVR0jBEowSIAUKxok
etg+I4tEOmrf71shJWMLGpahGqQYMBYxFDASBgNVBAMMC0Vhc3ktUlNBIENBghQb
4aatrofjfl4BDD9nlOcEkR6WVTATBgNVHSUEDDAKBggrBgEFBQcDATALBgNVHQ8E
BAMCBaAwEQYDVR0RBAowCIIGc2VydmVyMA0GCSqGSIb3DQEBCwUAA4IBAQBg2Qy5
/WCJzPmuyWzkETm+OtPg+WZvaKExWpF2NUuXiAcibxdZcF/PgkKi5vhRftSCMCiS
fr97iL31fVJoNWiuzp5FBdKk7P+TnznPS3qxP4m+eQe55iLGoC4jJWwXK6XY/Pc2
2r8TFqG9NOS0xydilDTpcGiOKWCuo1jA7lDwiKlFJzuZSoE842H7kPYU81tYq6XM
0/uaU9FH1e1dqfsF04NlMcaDI2U/pJ99BHYDrIRjp7r1bwmAec5z1kA8qHIpyMNo
L7+T+br61Ppm4BeucPWKWs14bOj5L9lthYqp+V3bMXkfhPUEBm+HgQXsvXwycWOM
IEm40+67zo+qfXjj
-----END CERTIFICATE-----